TN:
TN:
SF:/Users/kelvinsp/Qt5.3.2/5.3/clang_64/lib/QtCore.framework/Headers/qatomic_x86.h
FN:219,_ZN15QBasicAtomicOpsILi4EE5derefIiEEbRT_
FNDA:0,_ZN15QBasicAtomicOpsILi4EE5derefIiEEbRT_
FNF:1
FNH:0
DA:222,0
DA:225,0
DA:226,0
DA:228,0
LF:4
LH:0
end_of_record
SF:/Users/kelvinsp/Qt5.3.2/5.3/clang_64/lib/QtCore.framework/Headers/qbasicatomic.h
FN:124,_ZNK19QBasicAtomicIntegerIiE4loadEv
FN:136,_ZN19QBasicAtomicIntegerIiE5derefEv
FNDA:0,_ZNK19QBasicAtomicIntegerIiE4loadEv
FNDA:0,_ZN19QBasicAtomicIntegerIiE5derefEv
FNF:2
FNH:0
DA:124,0
DA:136,0
LF:2
LH:0
end_of_record
SF:/Users/kelvinsp/Qt5.3.2/5.3/clang_64/lib/QtCore.framework/Headers/qvector.h
FN:109,_ZNK7QVectorIP7QObjectE10isDetachedEv
FN:166,_ZN7QVectorIP7QObjectE5beginEv
FN:170,_ZN7QVectorIP7QObjectE3endEv
FN:266,_ZN7QVectorIP7QObjectE16defaultConstructEPS1_S3_
FN:298,_ZN7QVectorIP7QObjectE8destructEPS1_S3_
FN:331,_ZN7QVectorIP7QObjectE6detachEv
FN:470,_ZN7QVectorIP7QObjectE8freeDataEP15QTypedArrayDataIS1_E
FN:477,_ZN7QVectorIP7QObjectE11reallocDataEii6QFlagsIN10QArrayData16AllocationOptionEE
FNDA:0,_ZNK7QVectorIP7QObjectE10isDetachedEv
FNDA:3,_ZN7QVectorIP7QObjectE5beginEv
FNDA:6,_ZN7QVectorIP7QObjectE3endEv
FNDA:0,_ZN7QVectorIP7QObjectE16defaultConstructEPS1_S3_
FNDA:0,_ZN7QVectorIP7QObjectE8destructEPS1_S3_
FNDA:9,_ZN7QVectorIP7QObjectE6detachEv
FNDA:0,_ZN7QVectorIP7QObjectE8freeDataEP15QTypedArrayDataIS1_E
FNDA:0,_ZN7QVectorIP7QObjectE11reallocDataEii6QFlagsIN10QArrayData16AllocationOptionEE
FNF:8
FNH:3
DA:109,0
DA:166,3
DA:170,6
DA:273,0
DA:275,0
DA:305,0
DA:333,9
DA:335,0
DA:336,0
DA:339,0
DA:340,0
DA:341,18
DA:342,9
DA:472,0
DA:473,0
DA:474,0
DA:479,0
DA:480,0
DA:482,0
DA:484,0
DA:485,0
DA:488,0
DA:489,0
DA:492,0
DA:494,0
DA:495,0
DA:497,0
DA:498,0
DA:499,0
DA:501,0
DA:503,0
DA:504,0
DA:506,0
DA:507,0
DA:508,0
DA:511,0
DA:512,0
DA:515,0
DA:518,0
DA:519,0
DA:521,0
DA:522,0
DA:523,0
DA:524,0
DA:525,0
DA:526,0
DA:527,0
DA:528,0
DA:529,0
DA:530,0
DA:531,0
DA:532,0
DA:533,0
DA:534,0
DA:535,0
DA:536,0
DA:537,0
DA:539,0
DA:541,0
DA:542,0
DA:544,0
DA:545,0
DA:546,0
DA:549,0
DA:550,0
DA:551,0
DA:553,0
DA:554,0
DA:555,0
DA:557,0
DA:558,0
DA:560,0
DA:562,0
DA:563,0
DA:564,0
DA:565,0
LF:76
LH:5
end_of_record
SF:/Users/kelvinsp/Desktop/CodeCoverageExample/CodeCoverageExample/CodeCoverageExample/main.cpp
FN:5,main
FNDA:3,main
FNF:1
FNH:1
DA:7,3
DA:9,3
DA:13,21
DA:15,6
DA:17,3
DA:19,0
DA:20,0
DA:21,3
DA:23,3
DA:24,3
LF:10
LH:8
end_of_record
SF:/Users/kelvinsp/Qt5.3.2/5.3/clang_64/lib/QtCore.framework/Versions/5/Headers/qarraydata.h
FN:59,_ZN10QArrayData4dataEv
FN:128,_ZN10QArrayData10sharedNullEv
FN:211,_ZN15QTypedArrayDataIP7QObjectE4dataEv
FN:214,_ZN15QTypedArrayDataIP7QObjectE5beginEPS1_
FN:215,_ZN15QTypedArrayDataIP7QObjectE3endEPS1_
FN:223,_ZN15QTypedArrayDataIP7QObjectE8allocateEm6QFlagsIN10QArrayData16AllocationOptionEE
FN:231,_ZN15QTypedArrayDataIP7QObjectE10deallocateEP10QArrayData
FN:252,_ZN15QTypedArrayDataIP7QObjectE10sharedNullEv
FN:264,_ZN15QTypedArrayDataIP7QObjectE15unsharableEmptyEv
FNDA:0,_ZN10QArrayData4dataEv
FNDA:0,_ZN10QArrayData10sharedNullEv
FNDA:0,_ZN15QTypedArrayDataIP7QObjectE4dataEv
FNDA:0,_ZN15QTypedArrayDataIP7QObjectE5beginEPS1_
FNDA:0,_ZN15QTypedArrayDataIP7QObjectE3endEPS1_
FNDA:0,_ZN15QTypedArrayDataIP7QObjectE8allocateEm6QFlagsIN10QArrayData16AllocationOptionEE
FNDA:0,_ZN15QTypedArrayDataIP7QObjectE10deallocateEP10QArrayData
FNDA:0,_ZN15QTypedArrayDataIP7QObjectE10sharedNullEv
FNDA:0,_ZN15QTypedArrayDataIP7QObjectE15unsharableEmptyEv
FNF:9
FNH:0
DA:61,0
DA:63,0
DA:128,0
DA:211,0
DA:214,0
DA:215,0
DA:227,0
DA:228,0
DA:234,0
DA:235,0
DA:255,0
DA:267,0
LF:12
LH:0
end_of_record
SF:/Users/kelvinsp/Qt5.3.2/5.3/clang_64/lib/QtCore.framework/Versions/5/Headers/qflags.h
FN:115,_ZN6QFlagsIN10QArrayData16AllocationOptionEEC2ES1_
FN:115,_ZN6QFlagsIN10QArrayData16AllocationOptionEEC1ES1_
FN:140,_ZNK6QFlagsIN10QArrayData16AllocationOptionEE8testFlagES1_
FNDA:0,_ZN6QFlagsIN10QArrayData16AllocationOptionEEC1ES1_
FNDA:0,_ZN6QFlagsIN10QArrayData16AllocationOptionEEC2ES1_
FNDA:0,_ZNK6QFlagsIN10QArrayData16AllocationOptionEE8testFlagES1_
FNF:3
FNH:0
DA:115,0
DA:140,0
LF:2
LH:0
end_of_record
SF:/Users/kelvinsp/Qt5.3.2/5.3/clang_64/lib/QtCore.framework/Versions/5/Headers/qgenericatomic.h
FN:96,_ZN17QGenericAtomicOpsI15QBasicAtomicOpsILi4EEE4loadIiEET_RKS4_
FNDA:0,_ZN17QGenericAtomicOpsI15QBasicAtomicOpsILi4EEE4loadIiEET_RKS4_
FNF:1
FNH:0
DA:98,0
LF:1
LH:0
end_of_record
SF:/Users/kelvinsp/Qt5.3.2/5.3/clang_64/lib/QtCore.framework/Versions/5/Headers/qglobal.h
FN:584,_Z7qt_noopv
FNDA:0,_Z7qt_noopv
FNF:1
FNH:0
DA:584,0
LF:1
LH:0
end_of_record
SF:/Users/kelvinsp/Qt5.3.2/5.3/clang_64/lib/QtCore.framework/Versions/5/Headers/qrefcount.h
FN:67,_ZN9QtPrivate8RefCount5derefEv
FN:88,_ZNK9QtPrivate8RefCount10isSharableEv
FN:95,_ZNK9QtPrivate8RefCount8isStaticEv
FN:101,_ZNK9QtPrivate8RefCount8isSharedEv
FNDA:0,_ZN9QtPrivate8RefCount5derefEv
FNDA:0,_ZNK9QtPrivate8RefCount10isSharableEv
FNDA:0,_ZNK9QtPrivate8RefCount8isStaticEv
FNDA:0,_ZNK9QtPrivate8RefCount8isSharedEv
FNF:4
FNH:0
DA:68,0
DA:70,0
DA:71,0
DA:73,0
DA:74,0
DA:75,0
DA:76,0
DA:91,0
DA:98,0
DA:103,0
DA:104,0
LF:11
LH:0
end_of_record
TN:
SF:/Users/kelvinsp/Desktop/CodeCoverageExample/CodeCoverageExample/CodeCoverageExample/calculator.cpp
FN:3,_ZN10Calculator8additionEdd
FN:8,_ZN10Calculator11subtractionEdd
FN:13,_ZN10Calculator8divisionEdd
FN:18,_ZN10Calculator14multiplicationEdd
FNDA:3,_ZN10Calculator8additionEdd
FNDA:3,_ZN10Calculator11subtractionEdd
FNDA:3,_ZN10Calculator8divisionEdd
FNDA:2,_ZN10Calculator14multiplicationEdd
FNF:4
FNH:4
DA:5,3
DA:10,3
DA:15,3
DA:20,2
LF:4
LH:4
end_of_record
TN:
SF:/Users/kelvinsp/Desktop/CodeCoverageExample/CodeCoverageExample/CodeCoverageExample/tests/testsuite.h
FN:8,_ZN9TestSuiteD0Ev
FN:8,_ZN9TestSuiteD1Ev
FN:8,_ZN9TestSuiteD2Ev
FNDA:0,_ZN9TestSuiteD1Ev
FNDA:0,_ZN9TestSuiteD0Ev
FNDA:0,_ZN9TestSuiteD2Ev
FNF:3
FNH:0
DA:8,0
LF:1
LH:0
end_of_record
SF:/Users/kelvinsp/Qt5.3.2/5.3/clang_64/lib/QtCore.framework/Versions/5/Headers/qglobal.h
FN:584,_Z7qt_noopv
FNDA:0,_Z7qt_noopv
FNF:1
FNH:0
DA:584,0
LF:1
LH:0
end_of_record
SF:/Users/kelvinsp/Qt5.3.2/5.3/clang_64/lib/QtCore.framework/Versions/5/Headers/qscopedpointer.h
FN:118,_ZNK14QScopedPointerI11QObjectData21QScopedPointerDeleterIS0_EEptEv
FNDA:0,_ZNK14QScopedPointerI11QObjectData21QScopedPointerDeleterIS0_EEptEv
FNF:1
FNH:0
DA:120,0
DA:121,0
LF:2
LH:0
end_of_record
SF:/Users/kelvinsp/Desktop/CodeCoverageExample/build-CodeCoverageExample-Desktop_Qt_5_3_clang_64bit-Debug/moc_testsuite.cpp
FN:54,_ZN9TestSuite18qt_static_metacallEP7QObjectN11QMetaObject4CallEiPPv
FN:68,_ZNK9TestSuite10metaObjectEv
FN:73,_ZN9TestSuite11qt_metacastEPKc
FN:81,_ZN9TestSuite11qt_metacallEN11QMetaObject4CallEiPPv
FNDA:0,_ZN9TestSuite18qt_static_metacallEP7QObjectN11QMetaObject4CallEiPPv
FNDA:0,_ZNK9TestSuite10metaObjectEv
FNDA:0,_ZN9TestSuite11qt_metacastEPKc
FNDA:0,_ZN9TestSuite11qt_metacallEN11QMetaObject4CallEiPPv
FNF:4
FNH:0
DA:60,0
DA:70,0
DA:75,0
DA:76,0
DA:77,0
DA:78,0
DA:79,0
DA:83,0
DA:84,0
DA:85,0
DA:86,0
DA:87,0
LF:12
LH:0
end_of_record
TN:
SF:/Users/kelvinsp/Qt5.3.2/5.3/clang_64/lib/QtCore.framework/Headers/qatomic_x86.h
FN:219,_ZN15QBasicAtomicOpsILi4EE5derefIiEEbRT_
FNDA:3,_ZN15QBasicAtomicOpsILi4EE5derefIiEEbRT_
FNF:1
FNH:1
DA:222,3
DA:225,3
DA:226,3
DA:228,3
LF:4
LH:4
end_of_record
SF:/Users/kelvinsp/Qt5.3.2/5.3/clang_64/lib/QtCore.framework/Headers/qbasicatomic.h
FN:124,_ZNK19QBasicAtomicIntegerIiE4loadEv
FN:136,_ZN19QBasicAtomicIntegerIiE5derefEv
FNDA:36,_ZNK19QBasicAtomicIntegerIiE4loadEv
FNDA:3,_ZN19QBasicAtomicIntegerIiE5derefEv
FNF:2
FNH:2
DA:124,36
DA:136,3
LF:2
LH:2
end_of_record
SF:/Users/kelvinsp/Qt5.3.2/5.3/clang_64/lib/QtCore.framework/Headers/qvector.h
FN:72,_ZN7QVectorIP7QObjectEC1Ev
FN:72,_ZN7QVectorIP7QObjectEC2Ev
FN:76,_ZN7QVectorIP7QObjectED2Ev
FN:76,_ZN7QVectorIP7QObjectED1Ev
FN:109,_ZNK7QVectorIP7QObjectE10isDetachedEv
FN:266,_ZN7QVectorIP7QObjectE16defaultConstructEPS1_S3_
FN:298,_ZN7QVectorIP7QObjectE8destructEPS1_S3_
FN:470,_ZN7QVectorIP7QObjectE8freeDataEP15QTypedArrayDataIS1_E
FN:477,_ZN7QVectorIP7QObjectE11reallocDataEii6QFlagsIN10QArrayData16AllocationOptionEE
FN:582,_ZN7QVectorIP7QObjectE6appendERKS1_
FNDA:3,_ZN7QVectorIP7QObjectEC1Ev
FNDA:3,_ZN7QVectorIP7QObjectEC2Ev
FNDA:3,_ZN7QVectorIP7QObjectED1Ev
FNDA:3,_ZN7QVectorIP7QObjectED2Ev
FNDA:21,_ZNK7QVectorIP7QObjectE10isDetachedEv
FNDA:0,_ZN7QVectorIP7QObjectE16defaultConstructEPS1_S3_
FNDA:3,_ZN7QVectorIP7QObjectE8destructEPS1_S3_
FNDA:3,_ZN7QVectorIP7QObjectE8freeDataEP15QTypedArrayDataIS1_E
FNDA:3,_ZN7QVectorIP7QObjectE11reallocDataEii6QFlagsIN10QArrayData16AllocationOptionEE
FNDA:3,_ZN7QVectorIP7QObjectE6appendERKS1_
FNF:10
FNH:9
DA:72,6
DA:76,12
DA:109,21
DA:273,0
DA:275,0
DA:305,3
DA:472,3
DA:473,3
DA:474,3
DA:479,9
DA:480,3
DA:482,3
DA:484,3
DA:485,3
DA:488,6
DA:489,12
DA:492,12
DA:494,12
DA:495,3
DA:497,6
DA:498,12
DA:499,6
DA:501,6
DA:503,0
DA:504,0
DA:506,0
DA:507,3
DA:508,3
DA:511,3
DA:512,0
DA:515,3
DA:518,0
DA:519,0
DA:521,0
DA:522,0
DA:523,0
DA:524,0
DA:525,3
DA:526,0
DA:527,0
DA:528,0
DA:529,3
DA:530,3
DA:531,0
DA:532,0
DA:533,0
DA:534,0
DA:535,0
DA:536,0
DA:537,0
DA:539,0
DA:541,3
DA:542,0
DA:544,3
DA:545,3
DA:546,0
DA:549,0
DA:550,0
DA:551,0
DA:553,0
DA:554,3
DA:555,3
DA:557,6
DA:558,6
DA:560,6
DA:562,9
DA:563,6
DA:564,6
DA:565,3
DA:584,3
DA:585,3
DA:586,3
DA:587,3
DA:588,9
DA:589,3
DA:593,3
DA:594,3
DA:595,3
LF:78
LH:49
end_of_record
SF:/Users/kelvinsp/Desktop/CodeCoverageExample/CodeCoverageExample/CodeCoverageExample/tests/testsuite.cpp
FN:3,__cxx_global_var_init
FN:5,_ZN9TestSuiteC2Ev
FN:5,_ZN9TestSuiteC1Ev
FNDA:3,__cxx_global_var_init
FNDA:3,_ZN9TestSuiteC2Ev
FNDA:0,_ZN9TestSuiteC1Ev
FNF:3
FNH:2
DA:3,6
DA:5,3
DA:6,6
DA:7,3
DA:8,3
LF:5
LH:5
end_of_record
SF:/Users/kelvinsp/Qt5.3.2/5.3/clang_64/lib/QtCore.framework/Versions/5/Headers/qarraydata.h
FN:59,_ZN10QArrayData4dataEv
FN:128,_ZN10QArrayData10sharedNullEv
FN:211,_ZN15QTypedArrayDataIP7QObjectE4dataEv
FN:214,_ZN15QTypedArrayDataIP7QObjectE5beginEPS1_
FN:215,_ZN15QTypedArrayDataIP7QObjectE3endEPS1_
FN:223,_ZN15QTypedArrayDataIP7QObjectE8allocateEm6QFlagsIN10QArrayData16AllocationOptionEE
FN:231,_ZN15QTypedArrayDataIP7QObjectE10deallocateEP10QArrayData
FN:252,_ZN15QTypedArrayDataIP7QObjectE10sharedNullEv
FN:264,_ZN15QTypedArrayDataIP7QObjectE15unsharableEmptyEv
FNDA:30,_ZN10QArrayData4dataEv
FNDA:6,_ZN10QArrayData10sharedNullEv
FNDA:30,_ZN15QTypedArrayDataIP7QObjectE4dataEv
FNDA:15,_ZN15QTypedArrayDataIP7QObjectE5beginEPS1_
FNDA:12,_ZN15QTypedArrayDataIP7QObjectE3endEPS1_
FNDA:6,_ZN15QTypedArrayDataIP7QObjectE8allocateEm6QFlagsIN10QArrayData16AllocationOptionEE
FNDA:3,_ZN15QTypedArrayDataIP7QObjectE10deallocateEP10QArrayData
FNDA:6,_ZN15QTypedArrayDataIP7QObjectE10sharedNullEv
FNDA:3,_ZN15QTypedArrayDataIP7QObjectE15unsharableEmptyEv
FNF:9
FNH:9
DA:61,90
DA:63,30
DA:128,12
DA:211,30
DA:214,15
DA:215,12
DA:227,6
DA:228,6
DA:234,3
DA:235,3
DA:255,12
DA:267,6
LF:12
LH:12
end_of_record
SF:/Users/kelvinsp/Qt5.3.2/5.3/clang_64/lib/QtCore.framework/Versions/5/Headers/qflags.h
FN:115,_ZN6QFlagsIN10QArrayData16AllocationOptionEEC1ES1_
FN:115,_ZN6QFlagsIN10QArrayData16AllocationOptionEEC2ES1_
FN:140,_ZNK6QFlagsIN10QArrayData16AllocationOptionEE8testFlagES1_
FNDA:6,_ZN6QFlagsIN10QArrayData16AllocationOptionEEC1ES1_
FNDA:6,_ZN6QFlagsIN10QArrayData16AllocationOptionEEC2ES1_
FNDA:0,_ZNK6QFlagsIN10QArrayData16AllocationOptionEE8testFlagES1_
FNF:3
FNH:2
DA:115,12
DA:140,0
LF:2
LH:1
end_of_record
SF:/Users/kelvinsp/Qt5.3.2/5.3/clang_64/lib/QtCore.framework/Versions/5/Headers/qgenericatomic.h
FN:96,_ZN17QGenericAtomicOpsI15QBasicAtomicOpsILi4EEE4loadIiEET_RKS4_
FNDA:36,_ZN17QGenericAtomicOpsI15QBasicAtomicOpsILi4EEE4loadIiEET_RKS4_
FNF:1
FNH:1
DA:98,36
LF:1
LH:1
end_of_record
SF:/Users/kelvinsp/Qt5.3.2/5.3/clang_64/lib/QtCore.framework/Versions/5/Headers/qglobal.h
FN:584,_Z7qt_noopv
FNDA:125,_Z7qt_noopv
FNF:1
FNH:1
DA:584,250
LF:1
LH:1
end_of_record
SF:/Users/kelvinsp/Qt5.3.2/5.3/clang_64/lib/QtCore.framework/Versions/5/Headers/qrefcount.h
FN:67,_ZN9QtPrivate8RefCount5derefEv
FN:88,_ZNK9QtPrivate8RefCount10isSharableEv
FN:95,_ZNK9QtPrivate8RefCount8isStaticEv
FN:101,_ZNK9QtPrivate8RefCount8isSharedEv
FNDA:6,_ZN9QtPrivate8RefCount5derefEv
FNDA:3,_ZNK9QtPrivate8RefCount10isSharableEv
FNDA:3,_ZNK9QtPrivate8RefCount8isStaticEv
FNDA:24,_ZNK9QtPrivate8RefCount8isSharedEv
FNF:4
FNH:4
DA:68,6
DA:70,6
DA:71,0
DA:73,6
DA:74,3
DA:75,3
DA:76,6
DA:91,3
DA:98,3
DA:103,24
DA:104,54
LF:11
LH:10
end_of_record
